; Function Attrs: mustprogress nofree norecurse nosync nounwind willreturn memory(argmem: write) uwtable
define hidden void @_ZN2cv9APNGFrameC2Ev(ptr noundef nonnull writeonly align 8 captures(none) dereferenceable(1088) initializes((0, 17), (1044, 1060), (1064, 1088)) %0) unnamed_addr #3 align 2 {
  %2 = getelementptr inbounds nuw i8, ptr %0, i64 1064
  tail call void @llvm.memset.p0.i64(ptr noundef nonnull align 8 dereferenceable(24) %2, i8 0, i64 24, i1 false)
  %3 = getelementptr inbounds nuw i8, ptr %0, i64 1044
  store i32 0, ptr %3, align 4, !tbaa !3
  %4 = getelementptr inbounds nuw i8, ptr %0, i64 1048
  store i32 0, ptr %4, align 8, !tbaa !16
  %5 = getelementptr inbounds nuw i8, ptr %0, i64 1052
  tail call void @llvm.memset.p0.i64(ptr noundef nonnull align 8 dereferenceable(17) %0, i8 0, i64 17, i1 false)
  store i32 1, ptr %5, align 4, !tbaa !17
  %6 = getelementptr inbounds nuw i8, ptr %0, i64 1056
  store i32 1000, ptr %6, align 8, !tbaa !18
  ret void
}